target datalayout = "e-m:e-p270:32:32-p271:32:32-p272:64:64-i64:64-i128:128-f80:128-n8:16:32:64-S128"
target triple = "x86_64-pc-linux-gnu"

%"class.std::__cxx11::basic_string" = type { %"struct.std::__cxx11::basic_string<char>::_Alloc_hider", i64, %union.anon }
%"struct.std::__cxx11::basic_string<char>::_Alloc_hider" = type { ptr }
%union.anon = type { i64, [8 x i8] }
%class.cmStateSnapshot = type { ptr, %"class.cmLinkedTree<cmStateDetail::SnapshotDataType>::iterator" }
%"class.cmLinkedTree<cmStateDetail::SnapshotDataType>::iterator" = type { ptr, i64 }
%"class.std::vector.8" = type { %"struct.std::_Vector_base.9" }
%"struct.std::_Vector_base.9" = type { %"struct.std::_Vector_base<std::__cxx11::basic_string<char>, std::allocator<std::__cxx11::basic_string<char>>>::_Vector_impl" }
%"struct.std::_Vector_base<std::__cxx11::basic_string<char>, std::allocator<std::__cxx11::basic_string<char>>>::_Vector_impl" = type { %"struct.std::_Vector_base<std::__cxx11::basic_string<char>, std::allocator<std::__cxx11::basic_string<char>>>::_Vector_impl_data" }
%"struct.std::_Vector_base<std::__cxx11::basic_string<char>, std::allocator<std::__cxx11::basic_string<char>>>::_Vector_impl_data" = type { ptr, ptr, ptr }
%class.cmPropertyMap = type { %"class.std::unordered_map" }
%"class.std::unordered_map" = type { %"class.std::_Hashtable" }
%"class.std::_Hashtable" = type { ptr, i64, %"struct.std::__detail::_Hash_node_base", i64, %"struct.std::__detail::_Prime_rehash_policy", ptr }
%"struct.std::__detail::_Hash_node_base" = type { ptr }
%"struct.std::__detail::_Prime_rehash_policy" = type { float, i64 }
%class.cmState = type <{ %class.cmPropertyDefinitionMap, %"class.std::vector.8", %"class.std::unordered_map.22", %"class.std::unordered_map.22", %"class.std::unordered_set", %class.cmPropertyMap, %"class.std::unique_ptr", %"class.std::unique_ptr.51", %class.cmLinkedTree, %class.cmLinkedTree.69, %class.cmLinkedTree.70, %class.cmLinkedTree.76, %class.cmLinkedTree.82, %"class.std::__cxx11::basic_string", %"class.std::__cxx11::basic_string", i8, i8, i8, i8, i8, i8, i8, i8, i8, i8, [2 x i8], i32, i32, [4 x i8], %"class.std::optional", i8, [7 x i8] }>
%class.cmPropertyDefinitionMap = type { %"class.std::map" }
%"class.std::map" = type { %"class.std::_Rb_tree" }
%"class.std::_Rb_tree" = type { %"struct.std::_Rb_tree<std::pair<std::__cxx11::basic_string<char>, cmProperty::ScopeType>, std::pair<const std::pair<std::__cxx11::basic_string<char>, cmProperty::ScopeType>, cmPropertyDefinition>, std::_Select1st<std::pair<const std::pair<std::__cxx11::basic_string<char>, cmProperty::ScopeType>, cmPropertyDefinition>>, std::less<std::pair<std::__cxx11::basic_string<char>, cmProperty::ScopeType>>>::_Rb_tree_impl" }
%"struct.std::_Rb_tree<std::pair<std::__cxx11::basic_string<char>, cmProperty::ScopeType>, std::pair<const std::pair<std::__cxx11::basic_string<char>, cmProperty::ScopeType>, cmPropertyDefinition>, std::_Select1st<std::pair<const std::pair<std::__cxx11::basic_string<char>, cmProperty::ScopeType>, cmPropertyDefinition>>, std::less<std::pair<std::__cxx11::basic_string<char>, cmProperty::ScopeType>>>::_Rb_tree_impl" = type { %"struct.std::_Rb_tree_key_compare", %"struct.std::_Rb_tree_header" }
%"struct.std::_Rb_tree_key_compare" = type { %"struct.std::less" }
%"struct.std::less" = type { i8 }
%"struct.std::_Rb_tree_header" = type { %"struct.std::_Rb_tree_node_base", i64 }
%"struct.std::_Rb_tree_node_base" = type { i32, ptr, ptr, ptr }
%"class.std::unordered_map.22" = type { %"class.std::_Hashtable.23" }
%"class.std::_Hashtable.23" = type { ptr, i64, %"struct.std::__detail::_Hash_node_base", i64, %"struct.std::__detail::_Prime_rehash_policy", ptr }
%"class.std::unordered_set" = type { %"class.std::_Hashtable.36" }
%"class.std::_Hashtable.36" = type { ptr, i64, %"struct.std::__detail::_Hash_node_base", i64, %"struct.std::__detail::_Prime_rehash_policy", ptr }
%"class.std::unique_ptr" = type { %"struct.std::__uniq_ptr_data" }
%"struct.std::__uniq_ptr_data" = type { %"class.std::__uniq_ptr_impl" }
%"class.std::__uniq_ptr_impl" = type { %"class.std::tuple" }
%"class.std::tuple" = type { %"struct.std::_Tuple_impl" }
%"struct.std::_Tuple_impl" = type { %"struct.std::_Head_base.50" }
%"struct.std::_Head_base.50" = type { ptr }
%"class.std::unique_ptr.51" = type { %"struct.std::__uniq_ptr_data.52" }
%"struct.std::__uniq_ptr_data.52" = type { %"class.std::__uniq_ptr_impl.53" }
%"class.std::__uniq_ptr_impl.53" = type { %"class.std::tuple.54" }
%"class.std::tuple.54" = type { %"struct.std::_Tuple_impl.55" }
%"struct.std::_Tuple_impl.55" = type { %"struct.std::_Head_base.58" }
%"struct.std::_Head_base.58" = type { ptr }
%class.cmLinkedTree = type { %"class.std::vector.59", %"class.std::vector.64" }
%"class.std::vector.59" = type { %"struct.std::_Vector_base.60" }
%"struct.std::_Vector_base.60" = type { %"struct.std::_Vector_base<cmStateDetail::BuildsystemDirectoryStateType, std::allocator<cmStateDetail::BuildsystemDirectoryStateType>>::_Vector_impl" }
%"struct.std::_Vector_base<cmStateDetail::BuildsystemDirectoryStateType, std::allocator<cmStateDetail::BuildsystemDirectoryStateType>>::_Vector_impl" = type { %"struct.std::_Vector_base<cmStateDetail::BuildsystemDirectoryStateType, std::allocator<cmStateDetail::BuildsystemDirectoryStateType>>::_Vector_impl_data" }
%"struct.std::_Vector_base<cmStateDetail::BuildsystemDirectoryStateType, std::allocator<cmStateDetail::BuildsystemDirectoryStateType>>::_Vector_impl_data" = type { ptr, ptr, ptr }
%"class.std::vector.64" = type { %"struct.std::_Vector_base.65" }
%"struct.std::_Vector_base.65" = type { %"struct.std::_Vector_base<unsigned long, std::allocator<unsigned long>>::_Vector_impl" }
%"struct.std::_Vector_base<unsigned long, std::allocator<unsigned long>>::_Vector_impl" = type { %"struct.std::_Vector_base<unsigned long, std::allocator<unsigned long>>::_Vector_impl_data" }
%"struct.std::_Vector_base<unsigned long, std::allocator<unsigned long>>::_Vector_impl_data" = type { ptr, ptr, ptr }
%class.cmLinkedTree.69 = type { %"class.std::vector.8", %"class.std::vector.64" }
%class.cmLinkedTree.70 = type { %"class.std::vector.71", %"class.std::vector.64" }
%"class.std::vector.71" = type { %"struct.std::_Vector_base.72" }
%"struct.std::_Vector_base.72" = type { %"struct.std::_Vector_base<cmStateDetail::PolicyStackEntry, std::allocator<cmStateDetail::PolicyStackEntry>>::_Vector_impl" }
%"struct.std::_Vector_base<cmStateDetail::PolicyStackEntry, std::allocator<cmStateDetail::PolicyStackEntry>>::_Vector_impl" = type { %"struct.std::_Vector_base<cmStateDetail::PolicyStackEntry, std::allocator<cmStateDetail::PolicyStackEntry>>::_Vector_impl_data" }
%"struct.std::_Vector_base<cmStateDetail::PolicyStackEntry, std::allocator<cmStateDetail::PolicyStackEntry>>::_Vector_impl_data" = type { ptr, ptr, ptr }
%class.cmLinkedTree.76 = type { %"class.std::vector.77", %"class.std::vector.64" }
%"class.std::vector.77" = type { %"struct.std::_Vector_base.78" }
%"struct.std::_Vector_base.78" = type { %"struct.std::_Vector_base<cmStateDetail::SnapshotDataType, std::allocator<cmStateDetail::SnapshotDataType>>::_Vector_impl" }
%"struct.std::_Vector_base<cmStateDetail::SnapshotDataType, std::allocator<cmStateDetail::SnapshotDataType>>::_Vector_impl" = type { %"struct.std::_Vector_base<cmStateDetail::SnapshotDataType, std::allocator<cmStateDetail::SnapshotDataType>>::_Vector_impl_data" }
%"struct.std::_Vector_base<cmStateDetail::SnapshotDataType, std::allocator<cmStateDetail::SnapshotDataType>>::_Vector_impl_data" = type { ptr, ptr, ptr }
%class.cmLinkedTree.82 = type { %"class.std::vector.83", %"class.std::vector.64" }
%"class.std::vector.83" = type { %"struct.std::_Vector_base.84" }
%"struct.std::_Vector_base.84" = type { %"struct.std::_Vector_base<cmDefinitions, std::allocator<cmDefinitions>>::_Vector_impl" }
%"struct.std::_Vector_base<cmDefinitions, std::allocator<cmDefinitions>>::_Vector_impl" = type { %"struct.std::_Vector_base<cmDefinitions, std::allocator<cmDefinitions>>::_Vector_impl_data" }
%"struct.std::_Vector_base<cmDefinitions, std::allocator<cmDefinitions>>::_Vector_impl_data" = type { ptr, ptr, ptr }
%"class.std::optional" = type { %"struct.std::_Optional_base" }
%"struct.std::_Optional_base" = type { %"struct.std::_Optional_payload" }
%"struct.std::_Optional_payload" = type { %"struct.std::_Optional_payload.base", [7 x i8] }
%"struct.std::_Optional_payload.base" = type { %"struct.std::_Optional_payload_base.base" }
%"struct.std::_Optional_payload_base.base" = type <{ %"union.std::_Optional_payload_base<cmDependencyProvider>::_Storage", i8 }>
%"union.std::_Optional_payload_base<cmDependencyProvider>::_Storage" = type { %class.cmDependencyProvider }
%class.cmDependencyProvider = type { %"class.std::__cxx11::basic_string", %"class.std::vector.89" }
%"class.std::vector.89" = type { %"struct.std::_Vector_base.90" }
%"struct.std::_Vector_base.90" = type { %"struct.std::_Vector_base<cmDependencyProvider::Method, std::allocator<cmDependencyProvider::Method>>::_Vector_impl" }
%"struct.std::_Vector_base<cmDependencyProvider::Method, std::allocator<cmDependencyProvider::Method>>::_Vector_impl" = type { %"struct.std::_Vector_base<cmDependencyProvider::Method, std::allocator<cmDependencyProvider::Method>>::_Vector_impl_data" }
%"struct.std::_Vector_base<cmDependencyProvider::Method, std::allocator<cmDependencyProvider::Method>>::_Vector_impl_data" = type { ptr, ptr, ptr }

; Function Attrs: mustprogress nounwind uwtable
define linkonce_odr dso_local noundef zeroext i1 @_ZNK12cmLinkedTreeIN13cmStateDetail16SnapshotDataTypeEE8iteratoreqES3_(ptr noundef nonnull align 8 dereferenceable(16) %0, ptr %1, i64 %2) #5 comdat align 2 {
  %4 = alloca %"class.cmLinkedTree<cmStateDetail::SnapshotDataType>::iterator", align 8
  %5 = alloca ptr, align 8
  %6 = getelementptr inbounds { ptr, i64 }, ptr %4, i32 0, i32 0
  store ptr %1, ptr %6, align 8
  %7 = getelementptr inbounds { ptr, i64 }, ptr %4, i32 0, i32 1
  store i64 %2, ptr %7, align 8
  store ptr %0, ptr %5, align 8
  %8 = load ptr, ptr %5, align 8
  %9 = getelementptr inbounds %"class.cmLinkedTree<cmStateDetail::SnapshotDataType>::iterator", ptr %8, i32 0, i32 1
  %10 = load i64, ptr %9, align 8
  %11 = getelementptr inbounds %"class.cmLinkedTree<cmStateDetail::SnapshotDataType>::iterator", ptr %4, i32 0, i32 1
  %12 = load i64, ptr %11, align 8
  %13 = icmp eq i64 %10, %12
  ret i1 %13
}

; Function Attrs: mustprogress nounwind uwtable
define linkonce_odr dso_local void @_ZN12cmLinkedTreeIN13cmStateDetail16SnapshotDataTypeEE8iteratorC2EPS2_m(ptr noundef nonnull align 8 dereferenceable(16) %0, ptr noundef %1, i64 noundef %2) unnamed_addr #5 comdat align 2 {
  %4 = alloca ptr, align 8
  %5 = alloca ptr, align 8
  %6 = alloca i64, align 8
  store ptr %0, ptr %4, align 8
  store ptr %1, ptr %5, align 8
  store i64 %2, ptr %6, align 8
  %7 = load ptr, ptr %4, align 8
  %8 = getelementptr inbounds %"class.cmLinkedTree<cmStateDetail::SnapshotDataType>::iterator", ptr %7, i32 0, i32 0
  %9 = load ptr, ptr %5, align 8
  store ptr %9, ptr %8, align 8
  %10 = getelementptr inbounds %"class.cmLinkedTree<cmStateDetail::SnapshotDataType>::iterator", ptr %7, i32 0, i32 1
  %11 = load i64, ptr %6, align 8
  store i64 %11, ptr %10, align 8
  ret void
}

; Function Attrs: mustprogress nounwind uwtable
define linkonce_odr dso_local noundef i64 @_ZNKSt6vectorIN13cmStateDetail16SnapshotDataTypeESaIS1_EE4sizeEv(ptr noundef nonnull align 8 dereferenceable(24) %0) #5 comdat align 2 {
  %2 = alloca ptr, align 8
  store ptr %0, ptr %2, align 8
  %3 = load ptr, ptr %2, align 8
  %4 = getelementptr inbounds %"struct.std::_Vector_base.78", ptr %3, i32 0, i32 0
  %5 = getelementptr inbounds %"struct.std::_Vector_base<cmStateDetail::SnapshotDataType, std::allocator<cmStateDetail::SnapshotDataType>>::_Vector_impl_data", ptr %4, i32 0, i32 1
  %6 = load ptr, ptr %5, align 8
  %7 = getelementptr inbounds %"struct.std::_Vector_base.78", ptr %3, i32 0, i32 0
  %8 = getelementptr inbounds %"struct.std::_Vector_base<cmStateDetail::SnapshotDataType, std::allocator<cmStateDetail::SnapshotDataType>>::_Vector_impl_data", ptr %7, i32 0, i32 0
  %9 = load ptr, ptr %8, align 8
  %10 = ptrtoint ptr %6 to i64
  %11 = ptrtoint ptr %9 to i64
  %12 = sub i64 %10, %11
  %13 = sdiv exact i64 %12, 208
  ret i64 %13
}

; Function Attrs: mustprogress uwtable
define linkonce_odr dso_local noundef zeroext i1 @_ZNK12cmLinkedTreeIN13cmStateDetail16SnapshotDataTypeEE8iteratorneES3_(ptr noundef nonnull align 8 dereferenceable(16) %0, ptr %1, i64 %2) #4 comdat align 2 {
  %4 = alloca %"class.cmLinkedTree<cmStateDetail::SnapshotDataType>::iterator", align 8
  %5 = alloca ptr, align 8
  %6 = alloca %"class.cmLinkedTree<cmStateDetail::SnapshotDataType>::iterator", align 8
  %7 = getelementptr inbounds { ptr, i64 }, ptr %4, i32 0, i32 0
  store ptr %1, ptr %7, align 8
  %8 = getelementptr inbounds { ptr, i64 }, ptr %4, i32 0, i32 1
  store i64 %2, ptr %8, align 8
  store ptr %0, ptr %5, align 8
  %9 = load ptr, ptr %5, align 8
  call void @llvm.memcpy.p0.p0.i64(ptr align 8 %6, ptr align 8 %4, i64 16, i1 false)
  %10 = getelementptr inbounds { ptr, i64 }, ptr %6, i32 0, i32 0
  %11 = load ptr, ptr %10, align 8
  %12 = getelementptr inbounds { ptr, i64 }, ptr %6, i32 0, i32 1
  %13 = load i64, ptr %12, align 8
  %14 = call noundef zeroext i1 @_ZNK12cmLinkedTreeIN13cmStateDetail16SnapshotDataTypeEE8iteratoreqES3_(ptr noundef nonnull align 8 dereferenceable(16) %9, ptr %11, i64 %13)
  %15 = xor i1 %14, true
  ret i1 %15
}

; Function Attrs: mustprogress uwtable
define linkonce_odr dso_local { ptr, i64 } @_ZNK12cmLinkedTreeIN13cmStateDetail16SnapshotDataTypeEE4RootEv(ptr noundef nonnull align 8 dereferenceable(48) %0) #4 comdat align 2 {
  %2 = alloca %"class.cmLinkedTree<cmStateDetail::SnapshotDataType>::iterator", align 8
  %3 = alloca ptr, align 8
  store ptr %0, ptr %3, align 8
  %4 = load ptr, ptr %3, align 8
  call void @_ZN12cmLinkedTreeIN13cmStateDetail16SnapshotDataTypeEE8iteratorC2EPS2_m(ptr noundef nonnull align 8 dereferenceable(16) %2, ptr noundef %4, i64 noundef 0)
  %5 = load { ptr, i64 }, ptr %2, align 8
  ret { ptr, i64 } %5
}

; Function Attrs: mustprogress nounwind uwtable
define linkonce_odr dso_local noundef zeroext i1 @_ZNK12cmLinkedTreeIN13cmStateDetail16SnapshotDataTypeEE8iterator7IsValidEv(ptr noundef nonnull align 8 dereferenceable(16) %0) #5 comdat align 2 {
  %2 = alloca i1, align 1
  %3 = alloca ptr, align 8
  store ptr %0, ptr %3, align 8
  %4 = load ptr, ptr %3, align 8
  %5 = getelementptr inbounds %"class.cmLinkedTree<cmStateDetail::SnapshotDataType>::iterator", ptr %4, i32 0, i32 0
  %6 = load ptr, ptr %5, align 8
  %7 = icmp ne ptr %6, null
  br i1 %7, label %9, label %8

8:                                                ; preds = %1
  store i1 false, ptr %2, align 1
  br label %17

9:                                                ; preds = %1
  %10 = getelementptr inbounds %"class.cmLinkedTree<cmStateDetail::SnapshotDataType>::iterator", ptr %4, i32 0, i32 1
  %11 = load i64, ptr %10, align 8
  %12 = getelementptr inbounds %"class.cmLinkedTree<cmStateDetail::SnapshotDataType>::iterator", ptr %4, i32 0, i32 0
  %13 = load ptr, ptr %12, align 8
  %14 = getelementptr inbounds %class.cmLinkedTree.76, ptr %13, i32 0, i32 0
  %15 = call noundef i64 @_ZNKSt6vectorIN13cmStateDetail16SnapshotDataTypeESaIS1_EE4sizeEv(ptr noundef nonnull align 8 dereferenceable(24) %14) #3
  %16 = icmp ule i64 %11, %15
  store i1 %16, ptr %2, align 1
  br label %17

17:                                               ; preds = %9, %8
  %18 = load i1, ptr %2, align 1
  ret i1 %18
}

; Function Attrs: mustprogress uwtable
define dso_local noundef zeroext i1 @_ZNK15cmStateSnapshot7IsValidEv(ptr noundef nonnull align 8 dereferenceable(24) %0) #4 align 2 {
  %2 = alloca ptr, align 8
  %3 = alloca %"class.cmLinkedTree<cmStateDetail::SnapshotDataType>::iterator", align 8
  store ptr %0, ptr %2, align 8
  %4 = load ptr, ptr %2, align 8
  %5 = getelementptr inbounds %class.cmStateSnapshot, ptr %4, i32 0, i32 0
  %6 = load ptr, ptr %5, align 8
  %7 = icmp ne ptr %6, null
  br i1 %7, label %8, label %26

8:                                                ; preds = %1
  %9 = getelementptr inbounds %class.cmStateSnapshot, ptr %4, i32 0, i32 1
  %10 = call noundef zeroext i1 @_ZNK12cmLinkedTreeIN13cmStateDetail16SnapshotDataTypeEE8iterator7IsValidEv(ptr noundef nonnull align 8 dereferenceable(16) %9)
  br i1 %10, label %11, label %26

11:                                               ; preds = %8
  %12 = getelementptr inbounds %class.cmStateSnapshot, ptr %4, i32 0, i32 1
  %13 = getelementptr inbounds %class.cmStateSnapshot, ptr %4, i32 0, i32 0
  %14 = load ptr, ptr %13, align 8
  %15 = getelementptr inbounds %class.cmState, ptr %14, i32 0, i32 11
  %16 = call { ptr, i64 } @_ZNK12cmLinkedTreeIN13cmStateDetail16SnapshotDataTypeEE4RootEv(ptr noundef nonnull align 8 dereferenceable(48) %15)
  %17 = getelementptr inbounds { ptr, i64 }, ptr %3, i32 0, i32 0
  %18 = extractvalue { ptr, i64 } %16, 0
  store ptr %18, ptr %17, align 8
  %19 = getelementptr inbounds { ptr, i64 }, ptr %3, i32 0, i32 1
  %20 = extractvalue { ptr, i64 } %16, 1
  store i64 %20, ptr %19, align 8
  %21 = getelementptr inbounds { ptr, i64 }, ptr %3, i32 0, i32 0
  %22 = load ptr, ptr %21, align 8
  %23 = getelementptr inbounds { ptr, i64 }, ptr %3, i32 0, i32 1
  %24 = load i64, ptr %23, align 8
  %25 = call noundef zeroext i1 @_ZNK12cmLinkedTreeIN13cmStateDetail16SnapshotDataTypeEE8iteratorneES3_(ptr noundef nonnull align 8 dereferenceable(16) %12, ptr %22, i64 %24)
  br label %27

26:                                               ; preds = %8, %1
  br label %27

27:                                               ; preds = %26, %11
  %28 = phi i1 [ %25, %11 ], [ false, %26 ]
  ret i1 %28
}