; Function Attrs: mustprogress nofree norecurse nosync nounwind willreturn memory(read, inaccessiblemem: none) uwtable
define dso_local noundef zeroext i1 @_ZNK15cmStateSnapshot7IsValidEv(ptr noundef nonnull readonly align 8 captures(none) dereferenceable(24) %0) local_unnamed_addr #6 align 2 {
  %2 = load ptr, ptr %0, align 8
  %.not = icmp eq ptr %2, null
  br i1 %.not, label %_ZNK12cmLinkedTreeIN13cmStateDetail16SnapshotDataTypeEE8iterator7IsValidEv.exit.thread, label %3

3:                                                ; preds = %1
  %4 = getelementptr inbounds nuw i8, ptr %0, i64 8
  %5 = load ptr, ptr %4, align 8
  %.not.i = icmp eq ptr %5, null
  br i1 %.not.i, label %_ZNK12cmLinkedTreeIN13cmStateDetail16SnapshotDataTypeEE8iterator7IsValidEv.exit.thread, label %_ZNK12cmLinkedTreeIN13cmStateDetail16SnapshotDataTypeEE8iterator7IsValidEv.exit

_ZNK12cmLinkedTreeIN13cmStateDetail16SnapshotDataTypeEE8iterator7IsValidEv.exit: ; preds = %3
  %6 = getelementptr inbounds nuw i8, ptr %0, i64 16
  %7 = load i64, ptr %6, align 8
  %8 = getelementptr inbounds nuw i8, ptr %5, i64 8
  %9 = load ptr, ptr %8, align 8
  %10 = load ptr, ptr %5, align 8
  %11 = ptrtoint ptr %9 to i64
  %12 = ptrtoint ptr %10 to i64
  %13 = sub i64 %11, %12
  %14 = sdiv exact i64 %13, 208
  %15 = add i64 %7, -1
  %spec.select = icmp ult i64 %15, %14
  br label %_ZNK12cmLinkedTreeIN13cmStateDetail16SnapshotDataTypeEE8iterator7IsValidEv.exit.thread

_ZNK12cmLinkedTreeIN13cmStateDetail16SnapshotDataTypeEE8iterator7IsValidEv.exit.thread: ; preds = %_ZNK12cmLinkedTreeIN13cmStateDetail16SnapshotDataTypeEE8iterator7IsValidEv.exit, %3, %1
  %16 = phi i1 [ false, %1 ], [ false, %3 ], [ %spec.select, %_ZNK12cmLinkedTreeIN13cmStateDetail16SnapshotDataTypeEE8iterator7IsValidEv.exit ]
  ret i1 %16
}